; Function Attrs: mustprogress uwtable
define void @_ZN7Imf_3_214TypedAttributeINS_8RationalEE13readValueFromERNS_7IStreamEii(ptr nocapture noundef nonnull writeonly align 8 dereferenceable(16) %this, ptr noundef nonnull align 8 dereferenceable(40) %is, i32 %size, i32 %version) unnamed_addr #3 align 2 {
entry:
  %b.i2 = alloca [4 x i8], align 4
  %b.i = alloca [4 x i8], align 4
  %_value = getelementptr inbounds i8, ptr %this, i64 8
  call void @llvm.lifetime.start.p0(i64 4, ptr nonnull %b.i)
  %vtable.i.i.i = load ptr, ptr %is, align 8
  %vfn.i.i.i = getelementptr inbounds i8, ptr %vtable.i.i.i, i64 24
  %0 = load ptr, ptr %vfn.i.i.i, align 8
  %call.i.i.i = call noundef zeroext i1 %0(ptr noundef nonnull align 8 dereferenceable(40) %is, ptr noundef nonnull %b.i, i32 noundef 4)
  %1 = load i32, ptr %b.i, align 4
  store i32 %1, ptr %_value, align 8
  call void @llvm.lifetime.end.p0(i64 4, ptr nonnull %b.i)
  %d = getelementptr inbounds i8, ptr %this, i64 12
  call void @llvm.lifetime.start.p0(i64 4, ptr nonnull %b.i2)
  %vtable.i.i.i3 = load ptr, ptr %is, align 8
  %vfn.i.i.i4 = getelementptr inbounds i8, ptr %vtable.i.i.i3, i64 24
  %2 = load ptr, ptr %vfn.i.i.i4, align 8
  %call.i.i.i5 = call noundef zeroext i1 %2(ptr noundef nonnull align 8 dereferenceable(40) %is, ptr noundef nonnull %b.i2, i32 noundef 4)
  %3 = load i32, ptr %b.i2, align 4
  store i32 %3, ptr %d, align 4
  call void @llvm.lifetime.end.p0(i64 4, ptr nonnull %b.i2)
  ret void
}